BL51 BANKED LINKER/LOCATER V6.22                                                        11/18/2014  23:28:26  PAGE 1


BL51 BANKED LINKER/LOCATER V6.22, INVOKED BY:
C:\KEIL\C51\BIN\BL51.EXE Queen.obj TO test RAMSIZE (256)


MEMORY MODEL: COMPACT


INPUT MODULES INCLUDED:
  Queen.obj (QUEEN)
  C:\KEIL\C51\LIB\C51C.LIB (?C_STARTUP)
  C:\KEIL\C51\LIB\C51C.LIB (?C?COPY)
  C:\KEIL\C51\LIB\C51C.LIB (?C?CLDPTR)
  C:\KEIL\C51\LIB\C51C.LIB (?C?CSTOPTR)
  C:\KEIL\C51\LIB\C51C.LIB (?C_INIT)


LINK MAP OF MODULE:  test (QUEEN)


            TYPE    BASE      LENGTH    RELOCATION   SEGMENT NAME
            -----------------------------------------------------

            * * * * * * *   D A T A   M E M O R Y   * * * * * * *
            REG     0000H     0008H     ABSOLUTE     "REG BANK 0"
                    0008H     0018H                  *** GAP ***
            DATA    0020H     0001H     BIT_ADDR     ?BA?QUEEN
            IDATA   0021H     0001H     UNIT         ?STACK

            * * * * * * *  X D A T A   M E M O R Y  * * * * * * *
            XDATA   0000H     003CH     INPAGE       ?PD?QUEEN
            XDATA   003CH     004BH     INPAGE       _PDATA_GROUP_

            * * * * * * *   C O D E   M E M O R Y   * * * * * * *
            CODE    0000H     0003H     ABSOLUTE     
            CODE    0003H     022AH     UNIT         ?PR?MAIN?QUEEN
            CODE    022DH     0131H     UNIT         ?C?LIB_CODE
            CODE    035EH     008CH     UNIT         ?C_C51STARTUP
            CODE    03EAH     0047H     UNIT         ?C_INITSEG
            CODE    0431H     0045H     UNIT         ?PR?INIT_NRF24L01?QUEEN
            CODE    0476H     003BH     UNIT         ?PR?_SPI_WRITE_BUF?QUEEN
            CODE    04B1H     0039H     UNIT         ?CO?QUEEN
            CODE    04EAH     0038H     UNIT         ?PR?_NRF24L01_RXPACKET?QUEEN
            CODE    0522H     0035H     UNIT         ?PR?_NRF24L01_TXPACKET?QUEEN
            CODE    0557H     0035H     UNIT         ?PR?_LCD1602_DELAY1MS?QUEEN
            CODE    058CH     0032H     UNIT         ?PR?_SPI_READ_BUF?QUEEN
            CODE    05BEH     0024H     UNIT         ?PR?_SPI_RW?QUEEN
            CODE    05E2H     0023H     UNIT         ?PR?_DELAY?QUEEN
            CODE    0605H     001EH     UNIT         ?PR?LCDINIT?QUEEN
            CODE    0623H     0011H     UNIT         ?PR?_SPI_RW_REG?QUEEN
            CODE    0634H     0010H     UNIT         ?PR?SETRX_MODE?QUEEN
            CODE    0644H     000DH     UNIT         ?PR?_SPI_READ?QUEEN
            CODE    0651H     000CH     UNIT         ?PR?_LCDWRITECOM?QUEEN
            CODE    065DH     000CH     UNIT         ?PR?_LCDWRITEDATA?QUEEN
            CODE    0669H     000BH     UNIT         ?PR?_INERDELAY_US?QUEEN



OVERLAY MAP OF MODULE:   test (QUEEN)
BL51 BANKED LINKER/LOCATER V6.22                                                      11/18/2014  23:28:26  PAGE 2




SEGMENT                                PDATA_GROUP
  +--> CALLED SEGMENT                START    LENGTH
----------------------------------------------------
?C_C51STARTUP                        -----    -----
  +--> ?PR?MAIN?QUEEN
  +--> ?C_INITSEG

?PR?MAIN?QUEEN                       003CH    0043H
  +--> ?CO?QUEEN
  +--> ?PR?INIT_NRF24L01?QUEEN
  +--> ?PR?_NRF24L01_TXPACKET?QUEEN
  +--> ?PR?_DELAY?QUEEN
  +--> ?PR?SETRX_MODE?QUEEN
  +--> ?PR?_NRF24L01_RXPACKET?QUEEN

?PR?INIT_NRF24L01?QUEEN              -----    -----
  +--> ?PR?_INERDELAY_US?QUEEN
  +--> ?PR?_SPI_WRITE_BUF?QUEEN
  +--> ?PR?_SPI_RW_REG?QUEEN

?PR?_SPI_WRITE_BUF?QUEEN             0082H    0005H
  +--> ?PR?_SPI_RW?QUEEN

?PR?_SPI_RW_REG?QUEEN                -----    -----
  +--> ?PR?_SPI_RW?QUEEN

?PR?_NRF24L01_TXPACKET?QUEEN         007FH    0003H
  +--> ?PR?_SPI_WRITE_BUF?QUEEN
  +--> ?PR?_SPI_RW_REG?QUEEN
  +--> ?PR?_INERDELAY_US?QUEEN

?PR?SETRX_MODE?QUEEN                 -----    -----
  +--> ?PR?_SPI_RW_REG?QUEEN
  +--> ?PR?_INERDELAY_US?QUEEN

?PR?_NRF24L01_RXPACKET?QUEEN         007FH    0003H
  +--> ?PR?_SPI_READ?QUEEN
  +--> ?PR?_SPI_READ_BUF?QUEEN
  +--> ?PR?_SPI_RW_REG?QUEEN

?PR?_SPI_READ?QUEEN                  -----    -----
  +--> ?PR?_SPI_RW?QUEEN

?PR?_SPI_READ_BUF?QUEEN              0082H    0005H
  +--> ?PR?_SPI_RW?QUEEN



SYMBOL TABLE OF MODULE:  test (QUEEN)

  VALUE           TYPE          NAME
  ----------------------------------

  -------         MODULE        QUEEN
  C:0000H         SYMBOL        _ICE_DUMMY_
BL51 BANKED LINKER/LOCATER V6.22                                                      11/18/2014  23:28:26  PAGE 3


  D:0080H         PUBLIC        P0
  D:0090H         PUBLIC        P1
  D:00A0H         PUBLIC        P2
  D:00B0H         PUBLIC        P3
  B:0090H.1       PUBLIC        CE
  D:00A8H         PUBLIC        IE
  C:0431H         PUBLIC        init_NRF24L01
  X:0000H         PUBLIC        RX_ADDRESS
  X:0005H         PUBLIC        TX_ADDRESS
  D:00B8H         PUBLIC        IP
  B:00B0H.6       PUBLIC        KEY1
  B:00B0H.7       PUBLIC        KEY2
  C:065DH         PUBLIC        _LcdWriteData
  B:0020H.6       PUBLIC        RX_DR
  B:0020H.5       PUBLIC        TX_DS
  C:04EAH         PUBLIC        _nRF24L01_RxPacket
  B:00A0H.6       PUBLIC        LCD1602_RS
  C:0522H         PUBLIC        _nRF24L01_TxPacket
  C:0003H         PUBLIC        main
  B:00A0H.5       PUBLIC        LCD1602_RW
  C:0605H         PUBLIC        LcdInit
  D:0098H         PUBLIC        SCON
  D:0088H         PUBLIC        TCON
  B:0090H.4       PUBLIC        MOSI
  B:0090H.3       PUBLIC        MISO
  C:0634H         PUBLIC        SetRX_Mode
  X:000AH         PUBLIC        seg
  C:04B1H         SYMBOL        _?ix1000
  B:00A0H.7       PUBLIC        LCD1602_E
  C:04BAH         SYMBOL        _?ix1001
  C:0651H         PUBLIC        _LcdWriteCom
  C:057AH         PUBLIC        _Lcd1602_Delay1ms
  C:04CBH         SYMBOL        _?ix1002
  C:04D5H         SYMBOL        _?ix1003
  C:04DFH         SYMBOL        _?ix1004
  D:0020H         PUBLIC        sta
  C:058CH         PUBLIC        _SPI_Read_Buf
  C:0644H         PUBLIC        _SPI_Read
  C:047FH         PUBLIC        _SPI_Write_Buf
  B:0090H.2       PUBLIC        SCK
  B:00B0H.2       PUBLIC        CSN
  B:00A0H.3       PUBLIC        led0
  B:00A0H.2       PUBLIC        led1
  D:00C8H         PUBLIC        T2CON
  B:00A0H.1       PUBLIC        led2
  B:00A0H.0       PUBLIC        led3
  X:0014H         PUBLIC        RxBuf
  X:0028H         PUBLIC        TxBuf
  C:0669H         PUBLIC        _inerDelay_us
  B:0020H.4       PUBLIC        MAX_RT
  C:05E2H         PUBLIC        _Delay
  C:0623H         PUBLIC        _SPI_RW_Reg
  C:05C8H         PUBLIC        _SPI_RW
  D:00D0H         PUBLIC        PSW
  -------         PROC          _DELAY
  D:0006H         SYMBOL        s
  -------         DO            
BL51 BANKED LINKER/LOCATER V6.22                                                      11/18/2014  23:28:26  PAGE 4


  D:0004H         SYMBOL        i
  -------         ENDDO         
  C:05E2H         LINE#         126
  C:05E2H         LINE#         127
  C:05E2H         LINE#         129
  C:05F3H         LINE#         130
  C:0604H         LINE#         131
  -------         ENDPROC       _DELAY
  -------         PROC          _INERDELAY_US
  D:0007H         SYMBOL        n
  C:0669H         LINE#         140
  C:0669H         LINE#         141
  C:0669H         LINE#         142
  C:066FH         LINE#         143
  C:0673H         LINE#         144
  -------         ENDPROC       _INERDELAY_US
  -------         PROC          INIT_NRF24L01
  C:0431H         LINE#         148
  C:0431H         LINE#         149
  C:0431H         LINE#         150
  C:0436H         LINE#         151
  C:0438H         LINE#         152
  C:043AH         LINE#         153
  C:043CH         LINE#         154
  C:044CH         LINE#         155
  C:0453H         LINE#         156
  C:045AH         LINE#         157
  C:0461H         LINE#         158
  C:0468H         LINE#         159
  C:046FH         LINE#         160
  -------         ENDPROC       INIT_NRF24L01
  -------         PROC          L?0083
  -------         ENDPROC       L?0083
  -------         PROC          _SPI_RW
  D:0007H         SYMBOL        uchar
  -------         DO            
  D:0006H         SYMBOL        bit_ctr
  -------         ENDDO         
  C:05C8H         LINE#         166
  C:05C8H         LINE#         167
  C:05C8H         LINE#         169
  C:05CAH         LINE#         170
  C:05CAH         LINE#         171
  C:05CEH         LINE#         172
  C:05D2H         LINE#         173
  C:05D4H         LINE#         174
  C:05DAH         LINE#         175
  C:05DCH         LINE#         176
  C:05E1H         LINE#         177
  C:05E1H         LINE#         178
  -------         ENDPROC       _SPI_RW
  -------         PROC          _SPI_READ
  D:0007H         SYMBOL        reg
  -------         DO            
  D:0007H         SYMBOL        reg_val
  -------         ENDDO         
  C:0644H         LINE#         183
BL51 BANKED LINKER/LOCATER V6.22                                                      11/18/2014  23:28:26  PAGE 5


  C:0644H         LINE#         184
  C:0644H         LINE#         187
  C:0646H         LINE#         188
  C:0649H         LINE#         189
  C:064EH         LINE#         190
  C:0650H         LINE#         192
  C:0650H         LINE#         193
  -------         ENDPROC       _SPI_READ
  -------         PROC          _SPI_RW_REG
  D:0007H         SYMBOL        reg
  D:0005H         SYMBOL        value
  -------         DO            
  D:0004H         SYMBOL        status
  -------         ENDDO         
  C:0623H         LINE#         197
  C:0623H         LINE#         198
  C:0623H         LINE#         201
  C:0625H         LINE#         202
  C:062AH         LINE#         203
  C:062FH         LINE#         204
  C:0631H         LINE#         206
  C:0633H         LINE#         207
  -------         ENDPROC       _SPI_RW_REG
  -------         PROC          _SPI_READ_BUF
  D:0007H         SYMBOL        reg
  X:0083H         SYMBOL        pBuf
  X:0086H         SYMBOL        uchars
  -------         DO            
  D:0005H         SYMBOL        status
  D:0004H         SYMBOL        uchar_ctr
  -------         ENDDO         
  C:058CH         LINE#         212
  C:058EH         LINE#         213
  C:058EH         LINE#         216
  C:058EH         LINE#         217
  C:0593H         LINE#         219
  C:059EH         LINE#         220
  C:05B9H         LINE#         222
  C:05BBH         LINE#         224
  C:05BDH         LINE#         225
  -------         ENDPROC       _SPI_READ_BUF
  -------         PROC          L?0084
  -------         ENDPROC       L?0084
  -------         PROC          _SPI_WRITE_BUF
  D:0007H         SYMBOL        reg
  X:0083H         SYMBOL        pBuf
  X:0086H         SYMBOL        uchars
  -------         DO            
  D:0005H         SYMBOL        status
  D:0004H         SYMBOL        uchar_ctr
  -------         ENDDO         
  C:047FH         LINE#         230
  C:0481H         LINE#         231
  C:0481H         LINE#         234
  C:0481H         LINE#         235
  C:0486H         LINE#         236
  C:0491H         LINE#         237
BL51 BANKED LINKER/LOCATER V6.22                                                      11/18/2014  23:28:26  PAGE 6


  C:04ACH         LINE#         238
  C:04AEH         LINE#         239
  C:04B0H         LINE#         240
  -------         ENDPROC       _SPI_WRITE_BUF
  -------         PROC          SETRX_MODE
  C:0634H         LINE#         245
  C:0634H         LINE#         246
  C:0634H         LINE#         247
  C:0636H         LINE#         248
  C:063DH         LINE#         249
  C:063FH         LINE#         250
  -------         ENDPROC       SETRX_MODE
  -------         PROC          _NRF24L01_RXPACKET
  X:007FH         SYMBOL        rx_buf
  -------         DO            
  D:0003H         SYMBOL        revale
  -------         ENDDO         
  C:04EAH         LINE#         256
  C:04F4H         LINE#         257
  C:04F4H         LINE#         258
  C:04F6H         LINE#         259
  C:04FDH         LINE#         260
  C:0500H         LINE#         261
  C:0500H         LINE#         262
  C:0502H         LINE#         263
  C:0516H         LINE#         264
  C:0518H         LINE#         265
  C:0518H         LINE#         266
  C:051FH         LINE#         267
  C:0521H         LINE#         268
  -------         ENDPROC       _NRF24L01_RXPACKET
  -------         PROC          _NRF24L01_TXPACKET
  X:007FH         SYMBOL        tx_buf
  C:0522H         LINE#         273
  C:052CH         LINE#         274
  C:052CH         LINE#         275
  C:052EH         LINE#         276
  C:0535H         LINE#         277
  C:0549H         LINE#         278
  C:0550H         LINE#         279
  C:0552H         LINE#         280
  -------         ENDPROC       _NRF24L01_TXPACKET
  -------         PROC          L?0082
  -------         ENDPROC       L?0082
  -------         PROC          _LCD1602_DELAY1MS
  D:0007H         SYMBOL        c
  -------         DO            
  D:0005H         SYMBOL        a
  D:0006H         SYMBOL        b
  -------         ENDDO         
  C:057AH         LINE#         293
  C:057AH         LINE#         294
  C:057AH         LINE#         296
  C:0580H         LINE#         297
  C:0580H         LINE#         298
  C:0582H         LINE#         299
  C:0582H         LINE#         300
BL51 BANKED LINKER/LOCATER V6.22                                                      11/18/2014  23:28:26  PAGE 7


  C:0586H         LINE#         301
  C:0588H         LINE#         302
  C:058BH         LINE#         304
  -------         ENDPROC       _LCD1602_DELAY1MS
  -------         PROC          _LCDWRITECOM
  D:0004H         SYMBOL        com
  C:0651H         LINE#         327
  C:0653H         LINE#         328
  C:0653H         LINE#         329
  C:0655H         LINE#         330
  C:0657H         LINE#         331
  C:0657H         LINE#         333
  C:0657H         LINE#         334
  C:0657H         LINE#         336
  C:0657H         LINE#         337
  C:0657H         LINE#         338
  C:0657H         LINE#         341
  C:0657H         LINE#         342
  C:0657H         LINE#         344
  C:0657H         LINE#         345
  C:065AH         LINE#         346
  C:065CH         LINE#         347
  -------         ENDPROC       _LCDWRITECOM
  -------         PROC          _LCDWRITEDATA
  D:0004H         SYMBOL        dat
  C:065DH         LINE#         370
  C:065FH         LINE#         371
  C:065FH         LINE#         372
  C:0661H         LINE#         373
  C:0663H         LINE#         374
  C:0663H         LINE#         376
  C:0663H         LINE#         377
  C:0663H         LINE#         379
  C:0663H         LINE#         380
  C:0663H         LINE#         381
  C:0663H         LINE#         383
  C:0663H         LINE#         384
  C:0663H         LINE#         386
  C:0663H         LINE#         387
  C:0666H         LINE#         388
  C:0668H         LINE#         389
  -------         ENDPROC       _LCDWRITEDATA
  -------         PROC          LCDINIT
  C:0605H         LINE#         407
  C:0605H         LINE#         408
  C:0605H         LINE#         409
  C:060AH         LINE#         410
  C:060FH         LINE#         411
  C:0614H         LINE#         412
  C:0619H         LINE#         413
  C:061EH         LINE#         414
  -------         ENDPROC       LCDINIT
  -------         PROC          MAIN
  -------         DO            
  X:003CH         SYMBOL        Asking
  X:003EH         SYMBOL        Quizing
  X:0040H         SYMBOL        QzFn
BL51 BANKED LINKER/LOCATER V6.22                                                      11/18/2014  23:28:26  PAGE 8


  X:0042H         SYMBOL        i
  X:0044H         SYMBOL        tf
  X:0045H         SYMBOL        Ans
  X:0046H         SYMBOL        AskSt
  X:004FH         SYMBOL        AskStu
  X:0060H         SYMBOL        AskFnsh
  X:006AH         SYMBOL        QzSt
  X:0074H         SYMBOL        QzFnsh
  -------         ENDDO         
  C:0003H         LINE#         423
  C:0003H         LINE#         424
  C:0003H         LINE#         426
  C:0007H         LINE#         428
  C:0019H         LINE#         429
  C:002CH         LINE#         430
  C:003FH         LINE#         431
  C:0052H         LINE#         432
  C:0065H         LINE#         434
  C:0075H         LINE#         436
  C:0078H         LINE#         437
  C:0080H         LINE#         438
  C:0083H         LINE#         439
  C:0083H         LINE#         440
  C:0083H         LINE#         441
  C:008FH         LINE#         442
  C:0095H         LINE#         443
  C:0098H         LINE#         444
  C:009DH         LINE#         445
  C:00A1H         LINE#         446
  C:00A1H         LINE#         447
  C:00B6H         LINE#         448
  C:00BCH         LINE#         449
  C:00D3H         LINE#         450
  C:00E6H         LINE#         451
  C:00EBH         LINE#         452
  C:00EBH         LINE#         453
  C:00F4H         LINE#         454
  C:00F9H         LINE#         455
  C:00FEH         LINE#         456
  C:00FEH         LINE#         457
  C:0107H         LINE#         458
  C:010CH         LINE#         459
  C:0111H         LINE#         460
  C:0111H         LINE#         461
  C:0117H         LINE#         462
  C:0120H         LINE#         463
  C:0124H         LINE#         464
  C:0127H         LINE#         465
  C:012EH         LINE#         466
  C:012EH         LINE#         467
  C:0131H         LINE#         468
  C:013AH         LINE#         469
  C:0143H         LINE#         470
  C:014EH         LINE#         471
  C:0155H         LINE#         472
  C:015CH         LINE#         473
  C:015FH         LINE#         474
BL51 BANKED LINKER/LOCATER V6.22                                                      11/18/2014  23:28:26  PAGE 9


  C:016BH         LINE#         475
  C:0172H         LINE#         476
  C:0181H         LINE#         477
  C:0188H         LINE#         478
  C:018AH         LINE#         479
  C:0199H         LINE#         480
  C:01A0H         LINE#         481
  C:01A2H         LINE#         482
  C:01AEH         LINE#         483
  C:01B5H         LINE#         484
  C:01B7H         LINE#         485
  C:01C3H         LINE#         486
  C:01CAH         LINE#         487
  C:01CAH         LINE#         488
  C:01E1H         LINE#         489
  C:01E8H         LINE#         490
  C:01EDH         LINE#         491
  C:01FAH         LINE#         492
  C:0203H         LINE#         493
  C:0209H         LINE#         494
  C:020CH         LINE#         495
  C:020CH         LINE#         497
  C:020CH         LINE#         498
  C:0213H         LINE#         499
  C:0213H         LINE#         500
  C:0221H         LINE#         501
  C:0226H         LINE#         502
  C:0226H         LINE#         503
  C:022AH         LINE#         504
  -------         ENDPROC       MAIN
  -------         ENDMOD        QUEEN

  -------         MODULE        ?C?COPY
  C:02FDH         PUBLIC        ?C?COPY
  -------         ENDMOD        ?C?COPY

  -------         MODULE        ?C?CLDPTR
  C:0323H         PUBLIC        ?C?CLDPTR
  -------         ENDMOD        ?C?CLDPTR

  -------         MODULE        ?C?CSTOPTR
  C:033CH         PUBLIC        ?C?CSTOPTR
  -------         ENDMOD        ?C?CSTOPTR

*** WARNING L16: UNCALLED SEGMENT, IGNORED FOR OVERLAY PROCESS
    SEGMENT: ?PR?_LCDWRITEDATA?QUEEN

*** WARNING L16: UNCALLED SEGMENT, IGNORED FOR OVERLAY PROCESS
    SEGMENT: ?PR?LCDINIT?QUEEN

Program Size: data=10.0 xdata=135 code=1652
LINK/LOCATE RUN COMPLETE.  2 WARNING(S),  0 ERROR(S)
