BL51 BANKED LINKER/LOCATER V6.22                                                        11/20/2014  17:20:15  PAGE 1


BL51 BANKED LINKER/LOCATER V6.22, INVOKED BY:
C:\KEIL\C51\BIN\BL51.EXE Queen.obj TO test RAMSIZE (256)


MEMORY MODEL: COMPACT


INPUT MODULES INCLUDED:
  Queen.obj (QUEEN)
  C:\KEIL\C51\LIB\C51C.LIB (?C_STARTUP)
  C:\KEIL\C51\LIB\C51C.LIB (?C?COPY)
  C:\KEIL\C51\LIB\C51C.LIB (?C?CLDPTR)
  C:\KEIL\C51\LIB\C51C.LIB (?C?CSTOPTR)
  C:\KEIL\C51\LIB\C51C.LIB (?C?UIDIV)
  C:\KEIL\C51\LIB\C51C.LIB (?C_INIT)


LINK MAP OF MODULE:  test (QUEEN)


            TYPE    BASE      LENGTH    RELOCATION   SEGMENT NAME
            -----------------------------------------------------

            * * * * * * *   D A T A   M E M O R Y   * * * * * * *
            REG     0000H     0008H     ABSOLUTE     "REG BANK 0"
                    0008H     0018H                  *** GAP ***
            DATA    0020H     0001H     BIT_ADDR     ?BA?QUEEN
            IDATA   0021H     0001H     UNIT         ?STACK

            * * * * * * *  X D A T A   M E M O R Y  * * * * * * *
            XDATA   0000H     003CH     INPAGE       ?PD?QUEEN
            XDATA   003CH     004BH     INPAGE       _PDATA_GROUP_

            * * * * * * *   C O D E   M E M O R Y   * * * * * * *
            CODE    0000H     0003H     ABSOLUTE     
            CODE    0003H     0381H     UNIT         ?PR?MAIN?QUEEN
            CODE    0384H     0186H     UNIT         ?C?LIB_CODE
            CODE    050AH     008CH     UNIT         ?C_C51STARTUP
            CODE    0596H     0047H     UNIT         ?C_INITSEG
            CODE    05DDH     0045H     UNIT         ?PR?INIT_NRF24L01?QUEEN
            CODE    0622H     003BH     UNIT         ?PR?_SPI_WRITE_BUF?QUEEN
            CODE    065DH     0039H     UNIT         ?CO?QUEEN
            CODE    0696H     0038H     UNIT         ?PR?_NRF24L01_RXPACKET?QUEEN
            CODE    06CEH     0035H     UNIT         ?PR?_NRF24L01_TXPACKET?QUEEN
            CODE    0703H     0035H     UNIT         ?PR?_LCD1602_DELAY1MS?QUEEN
            CODE    0738H     0032H     UNIT         ?PR?_SPI_READ_BUF?QUEEN
            CODE    076AH     0024H     UNIT         ?PR?_SPI_RW?QUEEN
            CODE    078EH     0023H     UNIT         ?PR?_DELAY?QUEEN
            CODE    07B1H     001EH     UNIT         ?PR?LCDINIT?QUEEN
            CODE    07CFH     0017H     UNIT         ?PR?_LCDWRITECOM?QUEEN
            CODE    07E6H     0012H     UNIT         ?PR?_LCDWRITEDATA?QUEEN
            CODE    07F8H     0011H     UNIT         ?PR?_SPI_RW_REG?QUEEN
            CODE    0809H     0010H     UNIT         ?PR?SETRX_MODE?QUEEN
            CODE    0819H     000DH     UNIT         ?PR?_SPI_READ?QUEEN
            CODE    0826H     000BH     UNIT         ?PR?_INERDELAY_US?QUEEN



BL51 BANKED LINKER/LOCATER V6.22                                                      11/20/2014  17:20:15  PAGE 2


OVERLAY MAP OF MODULE:   test (QUEEN)


SEGMENT                                PDATA_GROUP
  +--> CALLED SEGMENT                START    LENGTH
----------------------------------------------------
?C_C51STARTUP                        -----    -----
  +--> ?PR?MAIN?QUEEN
  +--> ?C_INITSEG

?PR?MAIN?QUEEN                       003CH    0043H
  +--> ?CO?QUEEN
  +--> ?PR?INIT_NRF24L01?QUEEN
  +--> ?PR?_LCDWRITECOM?QUEEN
  +--> ?PR?_LCDWRITEDATA?QUEEN
  +--> ?PR?_NRF24L01_TXPACKET?QUEEN
  +--> ?PR?_DELAY?QUEEN
  +--> ?PR?SETRX_MODE?QUEEN
  +--> ?PR?_NRF24L01_RXPACKET?QUEEN

?PR?INIT_NRF24L01?QUEEN              -----    -----
  +--> ?PR?_INERDELAY_US?QUEEN
  +--> ?PR?_SPI_WRITE_BUF?QUEEN
  +--> ?PR?_SPI_RW_REG?QUEEN

?PR?_SPI_WRITE_BUF?QUEEN             0082H    0005H
  +--> ?PR?_SPI_RW?QUEEN

?PR?_SPI_RW_REG?QUEEN                -----    -----
  +--> ?PR?_SPI_RW?QUEEN

?PR?_LCDWRITECOM?QUEEN               -----    -----
  +--> ?PR?_LCD1602_DELAY1MS?QUEEN

?PR?_LCDWRITEDATA?QUEEN              -----    -----
  +--> ?PR?_LCD1602_DELAY1MS?QUEEN

?PR?_NRF24L01_TXPACKET?QUEEN         007FH    0003H
  +--> ?PR?_SPI_WRITE_BUF?QUEEN
  +--> ?PR?_SPI_RW_REG?QUEEN
  +--> ?PR?_INERDELAY_US?QUEEN

?PR?SETRX_MODE?QUEEN                 -----    -----
  +--> ?PR?_SPI_RW_REG?QUEEN
  +--> ?PR?_INERDELAY_US?QUEEN

?PR?_NRF24L01_RXPACKET?QUEEN         007FH    0003H
  +--> ?PR?_SPI_READ?QUEEN
  +--> ?PR?_SPI_READ_BUF?QUEEN
  +--> ?PR?_SPI_RW_REG?QUEEN

?PR?_SPI_READ?QUEEN                  -----    -----
  +--> ?PR?_SPI_RW?QUEEN

?PR?_SPI_READ_BUF?QUEEN              0082H    0005H
  +--> ?PR?_SPI_RW?QUEEN

BL51 BANKED LINKER/LOCATER V6.22                                                      11/20/2014  17:20:15  PAGE 3




SYMBOL TABLE OF MODULE:  test (QUEEN)

  VALUE           TYPE          NAME
  ----------------------------------

  -------         MODULE        QUEEN
  C:0000H         SYMBOL        _ICE_DUMMY_
  D:0080H         PUBLIC        P0
  D:0090H         PUBLIC        P1
  D:00A0H         PUBLIC        P2
  D:00B0H         PUBLIC        P3
  B:0090H.1       PUBLIC        CE
  C:05DDH         PUBLIC        init_NRF24L01
  X:0000H         PUBLIC        RX_ADDRESS
  X:0005H         PUBLIC        TX_ADDRESS
  B:00B0H.6       PUBLIC        KEY1
  B:00B0H.7       PUBLIC        KEY2
  C:07ECH         PUBLIC        _LcdWriteData
  B:0020H.6       PUBLIC        RX_DR
  B:0020H.5       PUBLIC        TX_DS
  C:0696H         PUBLIC        _nRF24L01_RxPacket
  B:00A0H.6       PUBLIC        LCD1602_RS
  C:06CEH         PUBLIC        _nRF24L01_TxPacket
  C:0003H         PUBLIC        main
  B:00A0H.5       PUBLIC        LCD1602_RW
  C:07B1H         PUBLIC        LcdInit
  B:0090H.4       PUBLIC        MOSI
  B:0090H.3       PUBLIC        MISO
  C:0809H         PUBLIC        SetRX_Mode
  X:000AH         PUBLIC        seg
  C:065DH         SYMBOL        _?ix1000
  B:00A0H.7       PUBLIC        LCD1602_E
  C:0666H         SYMBOL        _?ix1001
  C:07DAH         PUBLIC        _LcdWriteCom
  C:0726H         PUBLIC        _Lcd1602_Delay1ms
  C:0677H         SYMBOL        _?ix1002
  C:0681H         SYMBOL        _?ix1003
  C:068BH         SYMBOL        _?ix1004
  D:0020H         PUBLIC        sta
  C:0738H         PUBLIC        _SPI_Read_Buf
  C:0819H         PUBLIC        _SPI_Read
  C:062BH         PUBLIC        _SPI_Write_Buf
  B:0090H.2       PUBLIC        SCK
  B:00B0H.2       PUBLIC        CSN
  X:0014H         PUBLIC        RxBuf
  X:0028H         PUBLIC        TxBuf
  C:0826H         PUBLIC        _inerDelay_us
  B:0020H.4       PUBLIC        MAX_RT
  C:078EH         PUBLIC        _Delay
  C:07F8H         PUBLIC        _SPI_RW_Reg
  C:0774H         PUBLIC        _SPI_RW
  -------         PROC          _DELAY
  D:0006H         SYMBOL        s
  -------         DO            
  D:0004H         SYMBOL        i
BL51 BANKED LINKER/LOCATER V6.22                                                      11/20/2014  17:20:15  PAGE 4


  -------         ENDDO         
  C:078EH         LINE#         134
  C:078EH         LINE#         135
  C:078EH         LINE#         137
  C:079FH         LINE#         138
  C:07B0H         LINE#         139
  -------         ENDPROC       _DELAY
  -------         PROC          _INERDELAY_US
  D:0007H         SYMBOL        n
  C:0826H         LINE#         148
  C:0826H         LINE#         149
  C:0826H         LINE#         150
  C:082CH         LINE#         151
  C:0830H         LINE#         152
  -------         ENDPROC       _INERDELAY_US
  -------         PROC          INIT_NRF24L01
  C:05DDH         LINE#         156
  C:05DDH         LINE#         157
  C:05DDH         LINE#         158
  C:05E2H         LINE#         159
  C:05E4H         LINE#         160
  C:05E6H         LINE#         161
  C:05E8H         LINE#         162
  C:05F8H         LINE#         163
  C:05FFH         LINE#         164
  C:0606H         LINE#         165
  C:060DH         LINE#         166
  C:0614H         LINE#         167
  C:061BH         LINE#         168
  -------         ENDPROC       INIT_NRF24L01
  -------         PROC          L?0102
  -------         ENDPROC       L?0102
  -------         PROC          _SPI_RW
  D:0007H         SYMBOL        uchar
  -------         DO            
  D:0006H         SYMBOL        bit_ctr
  -------         ENDDO         
  C:0774H         LINE#         174
  C:0774H         LINE#         175
  C:0774H         LINE#         177
  C:0776H         LINE#         178
  C:0776H         LINE#         179
  C:077AH         LINE#         180
  C:077EH         LINE#         181
  C:0780H         LINE#         182
  C:0786H         LINE#         183
  C:0788H         LINE#         184
  C:078DH         LINE#         185
  C:078DH         LINE#         186
  -------         ENDPROC       _SPI_RW
  -------         PROC          _SPI_READ
  D:0007H         SYMBOL        reg
  -------         DO            
  D:0007H         SYMBOL        reg_val
  -------         ENDDO         
  C:0819H         LINE#         191
  C:0819H         LINE#         192
BL51 BANKED LINKER/LOCATER V6.22                                                      11/20/2014  17:20:15  PAGE 5


  C:0819H         LINE#         195
  C:081BH         LINE#         196
  C:081EH         LINE#         197
  C:0823H         LINE#         198
  C:0825H         LINE#         200
  C:0825H         LINE#         201
  -------         ENDPROC       _SPI_READ
  -------         PROC          _SPI_RW_REG
  D:0007H         SYMBOL        reg
  D:0005H         SYMBOL        value
  -------         DO            
  D:0004H         SYMBOL        status
  -------         ENDDO         
  C:07F8H         LINE#         205
  C:07F8H         LINE#         206
  C:07F8H         LINE#         209
  C:07FAH         LINE#         210
  C:07FFH         LINE#         211
  C:0804H         LINE#         212
  C:0806H         LINE#         214
  C:0808H         LINE#         215
  -------         ENDPROC       _SPI_RW_REG
  -------         PROC          _SPI_READ_BUF
  D:0007H         SYMBOL        reg
  X:0083H         SYMBOL        pBuf
  X:0086H         SYMBOL        uchars
  -------         DO            
  D:0005H         SYMBOL        status
  D:0004H         SYMBOL        uchar_ctr
  -------         ENDDO         
  C:0738H         LINE#         220
  C:073AH         LINE#         221
  C:073AH         LINE#         224
  C:073AH         LINE#         225
  C:073FH         LINE#         227
  C:074AH         LINE#         228
  C:0765H         LINE#         230
  C:0767H         LINE#         232
  C:0769H         LINE#         233
  -------         ENDPROC       _SPI_READ_BUF
  -------         PROC          L?0103
  -------         ENDPROC       L?0103
  -------         PROC          _SPI_WRITE_BUF
  D:0007H         SYMBOL        reg
  X:0083H         SYMBOL        pBuf
  X:0086H         SYMBOL        uchars
  -------         DO            
  D:0005H         SYMBOL        status
  D:0004H         SYMBOL        uchar_ctr
  -------         ENDDO         
  C:062BH         LINE#         238
  C:062DH         LINE#         239
  C:062DH         LINE#         242
  C:062DH         LINE#         243
  C:0632H         LINE#         244
  C:063DH         LINE#         245
  C:0658H         LINE#         246
BL51 BANKED LINKER/LOCATER V6.22                                                      11/20/2014  17:20:15  PAGE 6


  C:065AH         LINE#         247
  C:065CH         LINE#         248
  -------         ENDPROC       _SPI_WRITE_BUF
  -------         PROC          SETRX_MODE
  C:0809H         LINE#         253
  C:0809H         LINE#         254
  C:0809H         LINE#         255
  C:080BH         LINE#         256
  C:0812H         LINE#         257
  C:0814H         LINE#         258
  -------         ENDPROC       SETRX_MODE
  -------         PROC          _NRF24L01_RXPACKET
  X:007FH         SYMBOL        rx_buf
  -------         DO            
  D:0003H         SYMBOL        revale
  -------         ENDDO         
  C:0696H         LINE#         264
  C:06A0H         LINE#         265
  C:06A0H         LINE#         266
  C:06A2H         LINE#         267
  C:06A9H         LINE#         268
  C:06ACH         LINE#         269
  C:06ACH         LINE#         270
  C:06AEH         LINE#         271
  C:06C2H         LINE#         272
  C:06C4H         LINE#         273
  C:06C4H         LINE#         274
  C:06CBH         LINE#         275
  C:06CDH         LINE#         276
  -------         ENDPROC       _NRF24L01_RXPACKET
  -------         PROC          _NRF24L01_TXPACKET
  X:007FH         SYMBOL        tx_buf
  C:06CEH         LINE#         281
  C:06D8H         LINE#         282
  C:06D8H         LINE#         283
  C:06DAH         LINE#         284
  C:06E1H         LINE#         285
  C:06F5H         LINE#         286
  C:06FCH         LINE#         287
  C:06FEH         LINE#         288
  -------         ENDPROC       _NRF24L01_TXPACKET
  -------         PROC          L?0096
  -------         ENDPROC       L?0096
  -------         PROC          _LCD1602_DELAY1MS
  D:0007H         SYMBOL        c
  -------         DO            
  D:0005H         SYMBOL        a
  D:0006H         SYMBOL        b
  -------         ENDDO         
  C:0726H         LINE#         301
  C:0726H         LINE#         302
  C:0726H         LINE#         304
  C:072CH         LINE#         305
  C:072CH         LINE#         306
  C:072EH         LINE#         307
  C:072EH         LINE#         308
  C:0732H         LINE#         309
BL51 BANKED LINKER/LOCATER V6.22                                                      11/20/2014  17:20:15  PAGE 7


  C:0734H         LINE#         310
  C:0737H         LINE#         312
  -------         ENDPROC       _LCD1602_DELAY1MS
  C:07D2H         SYMBOL        L?0100
  C:07D3H         SYMBOL        L?0101
  -------         PROC          L?0099
  -------         ENDPROC       L?0099
  C:07D2H         SYMBOL        L?0100
  C:07D3H         SYMBOL        L?0101
  -------         PROC          _LCDWRITECOM
  D:0004H         SYMBOL        com
  C:07DAH         LINE#         335
  C:07DCH         LINE#         336
  C:07DCH         LINE#         337
  C:07DEH         LINE#         338
  C:07E0H         LINE#         339
  C:07E0H         LINE#         341
  C:07E0H         LINE#         342
  C:07E0H         LINE#         344
  C:07E0H         LINE#         345
  C:07E0H         LINE#         346
  C:07E0H         LINE#         349
  C:07E0H         LINE#         350
  C:07E0H         LINE#         352
  C:07E0H         LINE#         353
  C:07E3H         LINE#         354
  C:07E5H         LINE#         355
  -------         ENDPROC       _LCDWRITECOM
  C:07E8H         SYMBOL        L?0098
  -------         PROC          L?0097
  -------         ENDPROC       L?0097
  C:07E8H         SYMBOL        L?0098
  -------         PROC          _LCDWRITEDATA
  D:0004H         SYMBOL        dat
  C:07ECH         LINE#         378
  C:07EEH         LINE#         379
  C:07EEH         LINE#         380
  C:07F0H         LINE#         381
  C:07F2H         LINE#         382
  C:07F2H         LINE#         384
  C:07F2H         LINE#         385
  C:07F2H         LINE#         387
  C:07F2H         LINE#         388
  C:07F2H         LINE#         389
  C:07F2H         LINE#         391
  C:07F2H         LINE#         392
  C:07F2H         LINE#         394
  C:07F2H         LINE#         395
  C:07F5H         LINE#         396
  C:07F7H         LINE#         397
  -------         ENDPROC       _LCDWRITEDATA
  -------         PROC          LCDINIT
  C:07B1H         LINE#         415
  C:07B1H         LINE#         416
  C:07B1H         LINE#         417
  C:07B6H         LINE#         418
  C:07BBH         LINE#         419
BL51 BANKED LINKER/LOCATER V6.22                                                      11/20/2014  17:20:15  PAGE 8


  C:07C0H         LINE#         420
  C:07C5H         LINE#         421
  C:07CAH         LINE#         422
  -------         ENDPROC       LCDINIT
  -------         PROC          MAIN
  -------         DO            
  X:003CH         SYMBOL        Asking
  X:003EH         SYMBOL        Quizing
  X:0040H         SYMBOL        QzFn
  X:0042H         SYMBOL        i
  X:0044H         SYMBOL        tf
  X:0045H         SYMBOL        Ans
  X:0046H         SYMBOL        AskSt
  X:004FH         SYMBOL        AskStu
  X:0060H         SYMBOL        AskFnsh
  X:006AH         SYMBOL        QzSt
  X:0074H         SYMBOL        QzFnsh
  -------         ENDDO         
  C:0003H         LINE#         426
  C:0003H         LINE#         427
  C:0003H         LINE#         429
  C:0007H         LINE#         431
  C:0019H         LINE#         432
  C:002CH         LINE#         433
  C:003FH         LINE#         434
  C:0052H         LINE#         435
  C:0065H         LINE#         437
  C:0075H         LINE#         439
  C:0078H         LINE#         440
  C:007DH         LINE#         441
  C:0082H         LINE#         442
  C:0087H         LINE#         443
  C:008CH         LINE#         445
  C:008CH         LINE#         446
  C:008CH         LINE#         447
  C:0098H         LINE#         448
  C:009AH         LINE#         450
  C:009AH         LINE#         451
  C:009DH         LINE#         452
  C:00B4H         LINE#         453
  C:00C4H         LINE#         454
  C:00C9H         LINE#         455
  C:00E2H         LINE#         456
  C:00F2H         LINE#         457
  C:00F7H         LINE#         458
  C:00FBH         LINE#         459
  C:00FBH         LINE#         460
  C:0119H         LINE#         461
  C:011FH         LINE#         462
  C:0136H         LINE#         463
  C:0149H         LINE#         465
  C:0149H         LINE#         466
  C:014CH         LINE#         467
  C:0163H         LINE#         468
  C:0175H         LINE#         469
  C:017AH         LINE#         470
  C:0193H         LINE#         471
BL51 BANKED LINKER/LOCATER V6.22                                                      11/20/2014  17:20:15  PAGE 9


  C:01A5H         LINE#         472
  C:01AAH         LINE#         473
  C:01AFH         LINE#         474
  C:01AFH         LINE#         483
  C:01B5H         LINE#         484
  C:01BEH         LINE#         485
  C:01C2H         LINE#         486
  C:01C5H         LINE#         487
  C:01CCH         LINE#         488
  C:01CCH         LINE#         489
  C:01CFH         LINE#         490
  C:01D8H         LINE#         491
  C:01E1H         LINE#         492
  C:01F2H         LINE#         493
  C:01F9H         LINE#         495
  C:0211H         LINE#         496
  C:0221H         LINE#         497
  C:0221H         LINE#         498
  C:0224H         LINE#         499
  C:023DH         LINE#         500
  C:024FH         LINE#         501
  C:0254H         LINE#         502
  C:026BH         LINE#         503
  C:027DH         LINE#         504
  C:027DH         LINE#         505
  C:0289H         LINE#         506
  C:0290H         LINE#         507
  C:029FH         LINE#         509
  C:02A6H         LINE#         511
  C:02A6H         LINE#         512
  C:02B2H         LINE#         513
  C:02B9H         LINE#         514
  C:02B9H         LINE#         515
  C:02C5H         LINE#         516
  C:02CCH         LINE#         517
  C:02CCH         LINE#         518
  C:02D8H         LINE#         519
  C:02DFH         LINE#         520
  C:02DFH         LINE#         521
  C:02F6H         LINE#         522
  C:02FDH         LINE#         523
  C:0302H         LINE#         524
  C:030FH         LINE#         525
  C:0318H         LINE#         530
  C:031AH         LINE#         532
  C:031AH         LINE#         533
  C:031DH         LINE#         534
  C:0334H         LINE#         535
  C:0346H         LINE#         536
  C:034BH         LINE#         537
  C:0364H         LINE#         538
  C:0376H         LINE#         539
  C:0376H         LINE#         540
  C:0376H         LINE#         541
  C:037DH         LINE#         542
  C:037DH         LINE#         546
  C:0381H         LINE#         547
BL51 BANKED LINKER/LOCATER V6.22                                                      11/20/2014  17:20:15  PAGE 10


  -------         ENDPROC       MAIN
  -------         ENDMOD        QUEEN

  -------         MODULE        ?C?COPY
  C:0454H         PUBLIC        ?C?COPY
  -------         ENDMOD        ?C?COPY

  -------         MODULE        ?C?CLDPTR
  C:047AH         PUBLIC        ?C?CLDPTR
  -------         ENDMOD        ?C?CLDPTR

  -------         MODULE        ?C?CSTOPTR
  C:0493H         PUBLIC        ?C?CSTOPTR
  -------         ENDMOD        ?C?CSTOPTR

  -------         MODULE        ?C?UIDIV
  C:04B5H         PUBLIC        ?C?UIDIV
  -------         ENDMOD        ?C?UIDIV

*** WARNING L16: UNCALLED SEGMENT, IGNORED FOR OVERLAY PROCESS
    SEGMENT: ?PR?LCDINIT?QUEEN

Program Size: data=10.0 xdata=135 code=2097
LINK/LOCATE RUN COMPLETE.  1 WARNING(S),  0 ERROR(S)
